c__builtin__
set
p0
((lp1
S'secondly'
p2
aVall
p3
aS'dago'
p4
aS'consider'
p5
aS'pointing'
p6
aS'whoever'
p7
aS'smeg'
p8
aS'cockburger'
p9
aS'four'
p10
aS'penis'
p11
aS'jizz'
p12
aS'shitstain'
p13
aS'edu'
p14
aS'go'
p15
aS'assmunch'
p16
aS'tittyfuck'
p17
aS'oldest'
p18
aS'yonder'
p19
aS'causes'
p20
aS'seemed'
p21
aS'dickfuck'
p22
aS'rd'
p23
aS'certainly'
p24
aS'shittiest'
p25
aS'assnigger'
p26
aS"when's"
p27
aS'queerbait'
p28
aS'vs'
p29
aS'young'
p30
aS'including'
p31
aS'helminth'
p32
aS'presents'
p33
aVto
p34
aS'sandnigger'
p35
aVdoes
p36
aS'present'
p37
aS'th'
p38
aVunder
p39
aS'sorry'
p40
aS'slutbag'
p41
aS"a's"
p42
aS'worth'
p43
aS'sent'
p44
aS'cockmonkey'
p45
aS'motherfuck'
p46
aS'outside'
p47
aVvery
p48
aS'shitdick'
p49
aS'every'
p50
aS'queerhole'
p51
aS'mick'
p52
aVyourselves
p53
aS'cockface'
p54
aS'gaytard'
p55
aS"we'll"
p56
aS'went'
p57
aS'presented'
p58
aVdid
p59
aS'forth'
p60
aS"they've"
p61
aS'fewer'
p62
aS'shitfaced'
p63
aS'try'
p64
aS'p'
p65
aS'nigger'
p66
aS'schlong'
p67
aS'assbandit'
p68
aS'dickmonger'
p69
aS'small'
p70
aS'shows'
p71
aS'round'
p72
aS"it'll"
p73
aS"i'll"
p74
aS'shithead'
p75
aS'parted'
p76
aS'smaller'
p77
aS'says'
p78
aS"you'd"
p79
aS'buttfucka'
p80
aS'till'
p81
aS'cracker'
p82
aS'dumshit'
p83
aS'twatlips'
p84
aS'fuckoff'
p85
aS'past'
p86
aS'cockmongruel'
p87
aS'likely'
p88
aS'notwithstanding'
p89
aVfurther
p90
aS'quite'
p91
aS'vajayjay'
p92
aS'even'
p93
aS'vjayjay'
p94
aVwhat
p95
aS'appear'
p96
aS'fact'
p97
aS'dickfucker'
p98
aS'brief'
p99
aS'f*ck'
p100
aS'schmuck'
p101
aS'assgoblin'
p102
aS'rimjob'
p103
aVabove
p104
aS'sup'
p105
aS'damn'
p106
aS'new'
p107
aS'cockshit'
p108
aS'order'
p109
aS'ever'
p110
aS'full'
p111
aS"c'mon"
p112
aS'whose'
p113
aS'beaner'
p114
aS'respectively'
p115
aS'never'
p116
aS'suckass'
p117
aVhere
p118
aS'motherfucker'
p119
aS'youngest'
p120
aS'fucks'
p121
aS'whichsoever'
p122
aS'let'
p123
aS'groups'
p124
aS'others'
p125
aS"hadn't"
p126
aS'suckers'
p127
aS'along'
p128
aS"aren't"
p129
aS'coochie'
p130
aS'chink'
p131
aS'great'
p132
aS'mcfagget'
p133
aS'flamer'
p134
aS'cocknugget'
p135
aS'k'
p136
aS'allows'
p137
aS'shiznit'
p138
aS'ourself'
p139
aS'shitbagger'
p140
aS"i'd"
p141
aS'goddamnit'
p142
aS'howbeit'
p143
aS"he'd"
p144
aS'usually'
p145
aS'whereupon'
p146
aS"i'm"
p147
aS'asslick'
p148
aS'changes'
p149
aS'thats'
p150
aS'motherfucking'
p151
aS'hither'
p152
aS'via'
p153
aS'followed'
p154
aS'members'
p155
aS'whoreface'
p156
aS'cocksmith'
p157
aS'kooch'
p158
aS'merely'
p159
aS'bloody'
p160
aS'backed'
p161
aS'ass-pirate'
p162
aS'viz'
p163
aS'sonofabitch'
p164
aS'cunthole'
p165
aS'everybody'
p166
aS'use'
p167
aVfrom
p168
aS'penisbanger'
p169
aS'would'
p170
aS'fatass'
p171
aS'contains'
p172
aS'scrote'
p173
aS'two'
p174
aS'next'
p175
aVfew
p176
aS'asses'
p177
aS'jungle bunny'
p178
aS'therefore'
p179
aS'save'
p180
aS'taken'
p181
aS'asswipe'
p182
aVthemselves
p183
aS'thru'
p184
aVuntil
p185
aS'today'
p186
aVmore
p187
aS'lameass'
p188
aS'knows'
p189
aS'mr'
p190
aS'becomes'
p191
aS'hereby'
p192
aVit
p193
aS'downing'
p194
aS"ain't"
p195
aS'particular'
p196
aS'known'
p197
aS'pussylicking'
p198
aS'cases'
p199
aS'whatsoever'
p200
aS'must'
p201
aVme
p202
aS'states'
p203
aS'none'
p204
aS'balls'
p205
aS'douche'
p206
aS'room'
p207
aS'kraut'
p208
aS'f'
p209
aVthis
p210
aS'oh'
p211
aS'gringo'
p212
aS'wanker'
p213
aS'anywhere'
p214
aS'nine'
p215
aVcan
p216
aVtheirs
p217
aS'following'
p218
aS'making'
p219
aVmy
p220
aS'example'
p221
aS'sucka'
p222
aS'numbers'
p223
aS'clitfuck'
p224
aS'indicated'
p225
aS'give'
p226
aS'wank'
p227
aS"didn't"
p228
aS'near'
p229
aS'high'
p230
aS'indicates'
p231
aS'something'
p232
aS'want'
p233
aS'boner'
p234
aS'cocksucker'
p235
aS'longest'
p236
aS'cocksniffer'
p237
aS'needs'
p238
aS'hoe'
p239
aS'end'
p240
aS'turn'
p241
aS'rather'
p242
aS'ie'
p243
aS'meanwhile'
p244
aS'dyke'
p245
aVhow
p246
aS'opposite'
p247
aS'trollop'
p248
aS'moron'
p249
aS'instead'
p250
aS'fagbag'
p251
aS'cuntrag'
p252
aS'testicle'
p253
aS'chode'
p254
aS'okay'
p255
aS'tried'
p256
aS'may'
p257
aVafter
p258
aS'different'
p259
aS'dickwad'
p260
aS'kyke'
p261
aS'hereupon'
p262
aS'shitface'
p263
aS'queer'
p264
aVsuch
p265
aS'gaybob'
p266
aS'lesbian'
p267
aS'man'
p268
aVa
p269
aS'cumdumpster'
p270
aS'third'
p271
aS'va-j-j'
p272
aS'whenever'
p273
aS'maybe'
p274
aS'appreciate'
p275
aS'wankjob'
p276
aS'q'
p277
aS'wop'
p278
aS'ones'
p279
aVso
p280
aS'specifying'
p281
aS'allow'
p282
aS'keeps'
p283
aS'bint'
p284
aS'fuckup'
p285
aS'make'
p286
aS'turns'
p287
aS"that's"
p288
aS'six'
p289
aS'negro'
p290
aS'help'
p291
aS'dickmilk'
p292
aS"don't"
p293
aS'furthering'
p294
aS'indeed'
p295
aVover
p296
aS'assface'
p297
aS'mainly'
p298
aS'soon'
p299
aS'years'
p300
aS'course'
p301
aVthrough
p302
aS'looks'
p303
aS'buttfucker'
p304
aS'still'
p305
aS'thyself'
p306
aVits
p307
aVbefore
p308
aS'member'
p309
aS'skullfuck'
p310
aS'group'
p311
aS'thank'
p312
aS"he's"
p313
aS'selves'
p314
aS'inward'
p315
aS'unclefucker'
p316
aS'actually'
p317
aS'better'
p318
aS'whether'
p319
aS'willing'
p320
aS'differently'
p321
aS'thanx'
p322
aS'bitches'
p323
aVours
p324
aS'dumb ass'
p325
aS'might'
p326
aS"haven't"
p327
aS'shag'
p328
aS'versus'
p329
aVthen
p330
aVthem
p331
aS'someone'
p332
aS'somebody'
p333
aS'greater'
p334
aS'thereby'
p335
aS'sucker'
p336
aS'downs'
p337
aS'ye'
p338
aS'asssucker'
p339
aS'fuckface'
p340
aS'underneath'
p341
aS"you've"
p342
aVthey
p343
aS'niglet'
p344
aVnot
p345
aS'hisself'
p346
aVnow
p347
aS'bullshit'
p348
aVnor
p349
aS'dickwod'
p350
aS'yon'
p351
aS'several'
p352
aS'hereafter'
p353
aS'always'
p354
aS'reasonably'
p355
aS'whither'
p356
aS'l'
p357
aS'fag'
p358
aS'good'
p359
aS'cockwaffle'
p360
aVeach
p361
aS'kootch'
p362
aS'entirely'
p363
aS'higher'
p364
aS"mustn't"
p365
aS"isn't"
p366
aS'mean'
p367
aS'idem'
p368
aS'everyone'
p369
aS'dickbeaters'
p370
aS'whosoever'
p371
aVdoing
p372
aS'imbecile'
p373
aS'eg'
p374
aS'tother'
p375
aS'skank'
p376
aS'coochy'
p377
aS'ex'
p378
aS'year'
p379
aS'gayfuck'
p380
aVour
p381
aS'beyond'
p382
aS'fuckass'
p383
aS'shitbag'
p384
aVout
p385
aS'large'
p386
aS'backing'
p387
aS'barring'
p388
aS'pussies'
p389
aS"needn't"
p390
aS'asslicker'
p391
aS'furthermore'
p392
aS'since'
p393
aS'excepting'
p394
aS'looking'
p395
aS're'
p396
aS'seriously'
p397
aS'bitch'
p398
aS"shouldn't"
p399
aS"they'll"
p400
aS'got'
p401
aS'bitchass'
p402
aS'cause'
p403
aS'thereupon'
p404
aS'ass'
p405
aS'dickweed'
p406
aS'working'
p407
aS'turning'
p408
aS"you're"
p409
aS'turned'
p410
aS'kunt'
p411
aS'given'
p412
aS'like'
p413
aS'dickweasel'
p414
aS'que'
p415
aS'besides'
p416
aS'x'
p417
aS'ask'
p418
aS'mothafucka'
p419
aS'anyhow'
p420
aS'wanted'
p421
aS'lesbo'
p422
aS'cockbite'
p423
aS"how's"
p424
aS'thinks'
p425
aS'dammit'
p426
aS'assmuncher'
p427
aS'g'
p428
aS'could'
p429
aS'needing'
p430
aS'put'
p431
aS'tries'
p432
aS'keep'
p433
aS'thing'
p434
aS'thine'
p435
aS'anti'
p436
aS'aboard'
p437
aS'w'
p438
aS'ltd'
p439
aS'hence'
p440
aS'onto'
p441
aS'think'
p442
aS'fuckin'
p443
aS'first'
p444
aS'minge'
p445
aS'already'
p446
aS'feltch'
p447
aS'seeming'
p448
aS'whomso'
p449
aS'thereafter'
p450
aS'fuckwad'
p451
aS'number'
p452
aVyourself
p453
aS'twat'
p454
aS'cockknoker'
p455
aS'done'
p456
aS'long'
p457
aS'another'
p458
aS'frickin'
p459
aS'nigaboo'
p460
aS'open'
p461
aS'dookie'
p462
aS'awfully'
p463
aS"doesn't"
p464
aS'little'
p465
aS'interesting'
p466
aVtheir
p467
aS'ordering'
p468
aS'arsehole'
p469
aS'accordingly'
p470
aS'least'
p471
aS'name'
p472
aS'anyone'
p473
aS'indicate'
p474
aS'vagina'
p475
aS'dumbass'
p476
aVtoo
p477
aS'ordered'
p478
aS'circa'
p479
aS'gives'
p480
aS'interests'
p481
aS'anus'
p482
aS'assshit'
p483
aS'shitass'
p484
aS'titfuck'
p485
aS'mostly'
p486
aVthat
p487
aS'assfucker'
p488
aS'exactly'
p489
aS'took'
p490
aS'immediate'
p491
aS'snatch'
p492
aS'regards'
p493
aS'nigga'
p494
aS'somewhat'
p495
aS'bollocks'
p496
aS'cunnie'
p497
aVoff
p498
aS'believe'
p499
aVherself
p500
aVthan
p501
aS"here's"
p502
aS'dicks'
p503
aS'kind'
p504
aS'b'
p505
aS'aught'
p506
aS'unfortunately'
p507
aS'showed'
p508
aS'gotten'
p509
aS'older'
p510
aS'second'
p511
aS'nevertheless'
p512
aS'r'
p513
aVwere
p514
aS'dang'
p515
aS'toward'
p516
aS'handjob'
p517
aS'minus'
p518
aS'anyways'
p519
aVand
p520
aS'clit'
p521
aS'sees'
p522
aS'assbite'
p523
aS'assbanger'
p524
aS'alongside'
p525
aS'beforehand'
p526
aS'mine'
p527
aS'cuntslut'
p528
aS'say'
p529
aS'deggo'
p530
aS'unlikely'
p531
aVhave
p532
aS'need'
p533
aS'seen'
p534
aS'seem'
p535
aS'saw'
p536
aVany
p537
aS'splooge'
p538
aS'relatively'
p539
aS'assmonkey'
p540
aS'bastard'
p541
aS'smallest'
p542
aS'zero'
p543
aS'dildo'
p544
aS'thoroughly'
p545
aS'latter'
p546
aS'doochbag'
p547
aS'able'
p548
aS'aside'
p549
aS'thorough'
p550
aS'also'
p551
aS'asswad'
p552
aS'you-all'
p553
aS'take'
p554
aVwhich
p555
aS'faggotcock'
p556
aS'wanting'
p557
aS'asshole'
p558
aS'thundercunt'
p559
aS'dickbag'
p560
aS'greatest'
p561
aS'coon'
p562
aS'spook'
p563
aS'nobody'
p564
aS'unless'
p565
aS'jigaboo'
p566
aS'shall'
p567
aS'nutsack'
p568
aVwho
p569
aS'wells'
p570
aS"where's"
p571
aVmost
p572
aS'muffdiver'
p573
aS'shithouse'
p574
aS'eight'
p575
aS'amongst'
p576
aS'nothing'
p577
aVwhy
p578
aS'parting'
p579
aS'sub'
p580
aS'poonany'
p581
aS'dumbshit'
p582
aVdon
p583
aS'especially'
p584
aS'wherewith'
p585
aS'noone'
p586
aS'later'
p587
aS'm'
p588
aS'face'
p589
aS"you'll"
p590
aS'definitely'
p591
aS'place'
p592
aS'assfuck'
p593
aS'whomsoever'
p594
aS'differ'
p595
aS'normally'
p596
aS'came'
p597
aS'saying'
p598
aS'carpetmuncher'
p599
aS'bitchtits'
p600
aS'particularly'
p601
aS'show'
p602
aS'cuntlicker'
p603
aS'cockass'
p604
aS'anyway'
p605
aS'cuntass'
p606
aS'ending'
p607
aS'fuckbrain'
p608
aS'assclown'
p609
aS'cockjockey'
p610
aS'spastic'
p611
aS'find'
p612
aS'fifth'
p613
aS'one'
p614
aS'highest'
p615
aS"daren't"
p616
aS'shithole'
p617
aS'dick'
p618
aS'behind'
p619
aS'jap'
p620
aVshould
p621
aS'dumbfuck'
p622
aVonly
p623
aS'going'
p624
aS'specify'
p625
aS'fuckbag'
p626
aS'gaywad'
p627
aS'fagtard'
p628
aS'assshole'
p629
aS'pointed'
p630
aS'nut sack'
p631
aVdo
p632
aS'cockmuncher'
p633
aVhis
p634
aS'goes'
p635
aS'get'
p636
aVbetween
p637
aS'overall'
p638
aS'fucknutt'
p639
aS'truly'
p640
aS'muff'
p641
aS"they'd"
p642
aS"oughtn't"
p643
aS'cannot'
p644
aS'nearly'
p645
aS'paki'
p646
aS'despite'
p647
aS'fucknut'
p648
aVduring
p649
aS'beings'
p650
aS'camel toe'
p651
aVhim
p652
aS'areas'
p653
aS'regarding'
p654
aS'amid'
p655
aS'bar'
p656
aS'qv'
p657
aS'h'
p658
aS'generally'
p659
aS'ass-jabber'
p660
aS'state'
p661
aS'twice'
p662
aVshe
p663
aS'contain'
p664
aS"won't"
p665
aVwhere
p666
aS'thanks'
p667
aS'renob'
p668
aS'ignored'
p669
aS'peckerhead'
p670
aS'gaydo'
p671
aS'whorebag'
p672
aS'ends'
p673
aS'fucktard'
p674
aVup
p675
aS'dickhead'
p676
aS'namely'
p677
aVare
p678
aS'hell'
p679
aS'cuntface'
p680
aS'nutter'
p681
aS'best'
p682
aS'wonder'
p683
aS'cocknose'
p684
aS'said'
p685
aS'porch monkey'
p686
aS'ways'
p687
aS'asscock'
p688
aS'away'
p689
aS'currently'
p690
aS'please'
p691
aS'fuckboy'
p692
aS'enough'
p693
aS"there's"
p694
aS'various'
p695
aS'hopefully'
p696
aS'slapper'
p697
aS'probably'
p698
aS'neither'
p699
aS'cooter'
p700
aS'across'
p701
aS'piss'
p702
aS'available'
p703
aS'punta'
p704
aVwe
p705
aS'men'
p706
aS'useful'
p707
aS'opening'
p708
aS'points'
p709
aS'however'
p710
aS'cockmaster'
p711
aS'shitspitter'
p712
aS'wtf'
p713
aS'come'
p714
aS'faggot'
p715
aS'pissed'
p716
aS'cumtart'
p717
aVboth
p718
aS'c'
p719
aS'last'
p720
aS'fuckwitt'
p721
aS'thou'
p722
aS'many'
p723
aS"wouldn't"
p724
aS'thence'
p725
aS'according'
p726
aVagainst
p727
aS'etc'
p728
aVs
p729
aS'became'
p730
aS'asshat'
p731
aS'fuckbutt'
p732
aS'faces'
p733
aS'bumblefuck'
p734
aS'asshead'
p735
aS'com'
p736
aS'asked'
p737
aS"can't"
p738
aS'otherwise'
p739
aS'among'
p740
aS'liked'
p741
aS'co'
p742
aS'afterwards'
p743
aS'point'
p744
aS'seems'
p745
aS'dicksucker'
p746
aS'cumjockey'
p747
aS'whatever'
p748
aS'asspirate'
p749
aS'furthered'
p750
aVhers
p751
aS'non'
p752
aS"couldn't"
p753
aS'moreover'
p754
aS'throughout'
p755
aS'gayass'
p756
aS'considering'
p757
aS'sensible'
p758
aS'described'
p759
aS'munging'
p760
aS'asks'
p761
aS"it's"
p762
aS'three'
p763
aVbeen
p764
aS'twain'
p765
aVwhom
p766
aS'much'
p767
aS'cunt'
p768
aS'wherein'
p769
aS'interest'
p770
aS'puto'
p771
aS'jackass'
p772
aS'hardly'
p773
aS"it'd"
p774
aS'humping'
p775
aS'wants'
p776
aS'corresponding'
p777
aS'gay'
p778
aS'bampot'
p779
aS'latterly'
p780
aS'concerning'
p781
aS'lezzie'
p782
aS'else'
p783
aS'slag'
p784
aS'spic'
p785
aS'finds'
p786
aS'mothafuckin'
p787
aS'worked'
p788
aS'general'
p789
aS'pecker'
p790
aS'former'
p791
aVthose
p792
aS'sand nigger'
p793
aS'case'
p794
aS'wherewithal'
p795
aVmyself
p796
aS'novel'
p797
aS'look'
p798
aS'unlike'
p799
aVthese
p800
aS'nd'
p801
aS'vis-a-vis'
p802
aS'value'
p803
aS'n'
p804
aVwill
p805
aS'faggit'
p806
aVwhile
p807
aS'polesmoker'
p808
aS'pending'
p809
aS'guido'
p810
aS'cumslut'
p811
aS'assjacker'
p812
aS'gave'
p813
aS'cock'
p814
aS'theres'
p815
aS'fool'
p816
aS'seven'
p817
aS'whereafter'
p818
aS'assbag'
p819
aS'almost'
p820
aS'wherever'
p821
aVis
p822
aS'fuckersucker'
p823
aS'thus'
p824
aS'herein'
p825
aS'ilk'
p826
aS'shitting'
p827
aS'cockfucker'
p828
aS'cant'
p829
aVitself
p830
aS'whatall'
p831
aVin
p832
aS'alone'
p833
aS'whore'
p834
aVif
p835
aS'containing'
p836
aS'perhaps'
p837
aS'insofar'
p838
aS'began'
p839
aVsame
p840
aS'clearly'
p841
aS'beside'
p842
aS'hard on'
p843
aS'parts'
p844
aS'cockmongler'
p845
aS'blowjob'
p846
aS'gets'
p847
aS'thee'
p848
aS"weren't"
p849
aS'asscracker'
p850
aS'used'
p851
aS'suchlike'
p852
aS'see'
p853
aS'somewhere'
p854
aS'gook'
p855
aS'upon'
p856
aS'fucker'
p857
aS'dike'
p858
aS'douchewaffle'
p859
aS'uses'
p860
aS'fucked'
p861
aS'penispuffer'
p862
aS"he'll"
p863
aS'thoughts'
p864
aS'arse'
p865
aS'retard'
p866
aS'kept'
p867
aS'whereby'
p868
aS'largely'
p869
aVi
p870
aS'whole'
p871
aS'well'
p872
aS'anybody'
p873
aS'obviously'
p874
aS'thought'
p875
aS'tit'
p876
aS'without'
p877
aS'fuckwit'
p878
aS'comes'
p879
aS'y'
p880
aVthe
p881
aVyours
p882
aS'dipshit'
p883
aS'latest'
p884
aS'lest'
p885
aS'things'
p886
aS'bugger'
p887
aS"she'll"
p888
aS'newest'
p889
aVjust
p890
aS'less'
p891
aVbeing
p892
aS'downwards'
p893
aS'presumably'
p894
aS'ruski'
p895
aS'greetings'
p896
aS'facts'
p897
aS'regardless'
p898
aS'yes'
p899
aS'tard'
p900
aS'shitbreath'
p901
aS'yet'
p902
aS'unto'
p903
aS'twatwaffle'
p904
aS'jerk wad'
p905
aS'niggers'
p906
aS"we've"
p907
aVhad
p908
aS'except'
p909
aS'knew'
p910
aS'fudgepacker'
p911
aS'lets'
p912
aS'interested'
p913
aS"she'd"
p914
aS'cum'
p915
aVhas
p916
aS'jerk off'
p917
aS'ought'
p918
aS'astride'
p919
aS"t's"
p920
aS'gaylord'
p921
aS'around'
p922
aS'big'
p923
aS'showing'
p924
aS"who's"
p925
aS'possible'
p926
aS'sodding'
p927
aS'early'
p928
aS'shitty'
p929
aS'whichever'
p930
aS'dickface'
p931
aS'five'
p932
aS'know'
p933
aS'friggin'
p934
aS'using'
p935
aS'part'
p936
aS'dicksucking'
p937
aS'wetback'
p938
aS'apart'
p939
aS'necessary'
p940
aS'd'
p941
aS'excluding'
p942
aS'dickslap'
p943
aS'follows'
p944
aS"she's"
p945
aS'heeb'
p946
aS'douche-fag'
p947
aS'scullion'
p948
aVt
p949
aS'fully'
p950
aS'become'
p951
aS'works'
p952
aS'whomever'
p953
aS'towards'
p954
aS'grouping'
p955
aS'therein'
p956
aS"why's"
p957
aVbecause
p958
aS'old'
p959
aS'often'
p960
aS'fuckhole'
p961
aS'fucking'
p962
aS'goddamn'
p963
aVsome
p964
aS'somehow'
p965
aS'self'
p966
aS'sure'
p967
aS'hoebag'
p968
aS'honkey'
p969
aS'specified'
p970
aS'prick'
p971
aVourselves
p972
aS"shan't"
p973
aS'happens'
p974
aVfor
p975
aS'douchebag'
p976
aS'though'
p977
aS'gooch'
p978
aS'per'
p979
aS'everything'
p980
aS'asking'
p981
aS'provides'
p982
aS'tends'
p983
aS'dickhole'
p984
aS'fuckhead'
p985
aS'either'
p986
aVbe
p987
aS'cunnilingus'
p988
aS'felt'
p989
aS"mightn't"
p990
aS'skeet'
p991
aS'furthers'
p992
aS'seconds'
p993
aS'cumbubble'
p994
aS'fagfucker'
p995
aS'slut'
p996
aS'shitcanned'
p997
aS'nowhere'
p998
aS'although'
p999
aS'punanny'
p1000
aVby
p1001
aVon
p1002
aVabout
p1003
aS'goods'
p1004
aS'ok'
p1005
aS'puts'
p1006
aS'anything'
p1007
aS'getting'
p1008
aVof
p1009
aS'dumass'
p1010
aS'v'
p1011
aS'panooch'
p1012
aS'o'
p1013
aS'side'
p1014
aS'whence'
p1015
aS'plus'
p1016
aS'asshopper'
p1017
aS'shitter'
p1018
aS'consequently'
p1019
aVor
p1020
aS'fellatio'
p1021
aS'seeing'
p1022
aVown
p1023
aS'pissed off'
p1024
aS'formerly'
p1025
aS'orders'
p1026
aS'pussy'
p1027
aVinto
p1028
aS'within'
p1029
aVdown
p1030
aS'clusterfuck'
p1031
aS'appropriate'
p1032
aS'right'
p1033
aS'fuckstick'
p1034
aS'cocksmoker'
p1035
aS"c's"
p1036
aVyour
p1037
aS'fuck'
p1038
aS'chinc'
p1039
aS'shitbrains'
p1040
aS'beneath'
p1041
aVher
p1042
aS'area'
p1043
aS'cockhead'
p1044
aS'downed'
p1045
aVthere
p1046
aS'vag'
p1047
aS'amidst'
p1048
aS'sides'
p1049
aS'butt plug'
p1050
aS'inasmuch'
p1051
aS'pollock'
p1052
aS'homo'
p1053
aS'inner'
p1054
aS'way'
p1055
aS'naught'
p1056
aS'brotherfucker'
p1057
aVwas
p1058
aS'opens'
p1059
aS'pissflaps'
p1060
aVhimself
p1061
aS'elsewhere'
p1062
aS"i've"
p1063
aS'becoming'
p1064
aS'sundry'
p1065
aVbut
p1066
aS'back'
p1067
aS'spick'
p1068
aS'fucktart'
p1069
aS'hi'
p1070
aS'ended'
p1071
aS'ho'
p1072
aS'newer'
p1073
aS'butt-pirate'
p1074
aS'trying'
p1075
aVwith
p1076
aVhe
p1077
aS'cumguzzler'
p1078
aS"they're"
p1079
aS'made'
p1080
aS'dickjuice'
p1081
aS'homodumbshit'
p1082
aS'places'
p1083
aS"wasn't"
p1084
aS'wish'
p1085
aS'inside'
p1086
aS'j'
p1087
aS'rooms'
p1088
aS"hasn't"
p1089
aS'us'
p1090
aS'tell'
p1091
aS'work'
p1092
aS'placed'
p1093
aVbelow
p1094
aS'un'
p1095
aS'shitcunt'
p1096
aS'problem'
p1097
aS'z'
p1098
aS'clear'
p1099
aS"we'd"
p1100
aS'queef'
p1101
aS'gone'
p1102
aS'cocksmoke'
p1103
aS'sometimes'
p1104
aS'associated'
p1105
aS'certain'
p1106
aVam
p1107
aS'choad'
p1108
aVan
p1109
aS'shiz'
p1110
aS'poonani'
p1111
aVas
p1112
aS'sometime'
p1113
aVat
p1114
aS'et'
p1115
aS'mrs'
p1116
aS'poontang'
p1117
aS'shit'
p1118
aS'inc'
p1119
aS'slubberdegullion'
p1120
aVagain
p1121
aS'bollox'
p1122
aS'uucp'
p1123
aS'twats'
p1124
aVno
p1125
aS'idiot'
p1126
aS'whereas'
p1127
aVwhen
p1128
aS'backs'
p1129
aS'lately'
p1130
aS'grouped'
p1131
aVother
p1132
aS'tits'
p1133
aS'kike'
p1134
aS'ass-hat'
p1135
aVyou
p1136
aS'really'
p1137
aS"what's"
p1138
aS'penisfucker'
p1139
aS'presenting'
p1140
aS'oneself'
p1141
aS'gayfuckist'
p1142
aS'welcome'
p1143
aS'problems'
p1144
aS'porchmonkey'
p1145
aS"let's"
p1146
aS'clitface'
p1147
aS'important'
p1148
aS'midget'
p1149
aS'serious'
p1150
aS'bitchy'
p1151
aS'poon'
p1152
aS'needed'
p1153
aS'opened'
p1154
aS'younger'
p1155
aS'e'
p1156
aS'longer'
p1157
aS'junglebunny'
p1158
aS'together'
p1159
aVhaving
p1160
aS'u'
p1161
aS"we're"
p1162
aS'far'
p1163
aS'everywhere'
p1164
aS'evenly'
p1165
aS'hello'
p1166
aVonce
p1167
atp1168
Rp1169
.